; Function Attrs: nounwind uwtable
define i32 @curl_easy_pause(ptr noundef %0, i32 noundef %1) local_unnamed_addr #5 {
  %.not = icmp eq ptr %0, null
  br i1 %.not, label %65, label %3

3:                                                ; preds = %2
  %4 = load i32, ptr %0, align 8, !tbaa !96
  %5 = icmp eq i32 %4, -1059136595
  br i1 %5, label %6, label %65

6:                                                ; preds = %3
  %7 = getelementptr inbounds nuw i8, ptr %0, i64 24
  %8 = load ptr, ptr %7, align 8, !tbaa !82
  %.not50 = icmp eq ptr %8, null
  br i1 %.not50, label %65, label %9

9:                                                ; preds = %6
  %10 = tail call zeroext i1 @Curl_is_in_callback(ptr noundef nonnull %0) #11
  %11 = getelementptr inbounds nuw i8, ptr %0, i64 316
  %12 = load i32, ptr %11, align 4, !tbaa !127
  %13 = and i32 %12, 48
  %14 = and i32 %12, -49
  %15 = and i32 %1, 1
  %.not51 = icmp eq i32 %15, 0
  %16 = shl nuw nsw i32 %15, 4
  %17 = or disjoint i32 %14, %16
  %18 = and i32 %1, 4
  %.not52 = icmp eq i32 %18, 0
  %19 = shl nuw nsw i32 %18, 3
  %20 = or disjoint i32 %17, %19
  %21 = and i32 %20, 48
  %.not53 = icmp eq i32 %21, %13
  %.not54 = icmp eq i32 %21, 48
  %22 = xor i32 %20, -1
  %23 = and i32 %12, 32
  %24 = and i32 %23, %22
  %.not55 = icmp eq i32 %24, 0
  br i1 %.not55, label %29, label %25

25:                                               ; preds = %9
  %26 = getelementptr inbounds nuw i8, ptr %0, i64 96
  %27 = load i32, ptr %26, align 8, !tbaa !128
  %28 = add i32 %27, -13
  %spec.select = icmp ult i32 %28, 2
  br label %29

29:                                               ; preds = %25, %9
  %30 = phi i1 [ false, %9 ], [ %spec.select, %25 ]
  store i32 %20, ptr %11, align 4, !tbaa !127
  br i1 %.not54, label %48, label %31

31:                                               ; preds = %29
  tail call void @Curl_expire(ptr noundef nonnull %0, i64 noundef 0, i32 noundef 8) #11
  %32 = getelementptr inbounds nuw i8, ptr %0, i64 3128
  store i64 0, ptr %32, align 8, !tbaa !129
  br i1 %.not52, label %33, label %37

33:                                               ; preds = %31
  %34 = getelementptr inbounds nuw i8, ptr %0, i64 5035
  %35 = load i8, ptr %34, align 1, !tbaa !130
  %36 = or i8 %35, 2
  store i8 %36, ptr %34, align 1, !tbaa !130
  br label %37

37:                                               ; preds = %33, %31
  br i1 %.not51, label %38, label %42

38:                                               ; preds = %37
  %39 = getelementptr inbounds nuw i8, ptr %0, i64 5035
  %40 = load i8, ptr %39, align 1, !tbaa !130
  %41 = or i8 %40, 1
  store i8 %41, ptr %39, align 1, !tbaa !130
  br label %42

42:                                               ; preds = %38, %37
  br i1 %.not53, label %48, label %43

43:                                               ; preds = %42
  %44 = getelementptr inbounds nuw i8, ptr %0, i64 208
  %45 = load ptr, ptr %44, align 8, !tbaa !81
  %.not56 = icmp eq ptr %45, null
  br i1 %.not56, label %48, label %46

46:                                               ; preds = %43
  %47 = tail call i32 @Curl_update_timer(ptr noundef nonnull %45) #11
  %.not57 = icmp eq i32 %47, 0
  br i1 %.not57, label %48, label %.thread65

48:                                               ; preds = %42, %43, %46, %29
  br i1 %30, label %49, label %51

49:                                               ; preds = %48
  %50 = tail call i32 @Curl_creader_unpause(ptr noundef nonnull %0) #11
  %.not58 = icmp eq i32 %50, 0
  br i1 %.not58, label %51, label %.thread65

51:                                               ; preds = %49, %48
  %52 = load i32, ptr %11, align 4, !tbaa !127
  %53 = and i32 %52, 16
  %.not59 = icmp eq i32 %53, 0
  br i1 %.not59, label %54, label %.thread

54:                                               ; preds = %51
  %55 = tail call zeroext i1 @Curl_cwriter_is_paused(ptr noundef nonnull %0) #11
  br i1 %55, label %56, label %.thread

56:                                               ; preds = %54
  %57 = tail call i32 @Curl_conn_ev_data_pause(ptr noundef nonnull %0, i1 noundef zeroext false) #11
  %58 = tail call i32 @Curl_cwriter_unpause(ptr noundef nonnull %0) #11
  %.not60 = icmp eq i32 %58, 0
  br i1 %.not60, label %.thread, label %.thread65

.thread:                                          ; preds = %54, %51, %56
  %59 = getelementptr inbounds nuw i8, ptr %0, i64 5036
  %60 = load i32, ptr %59, align 4
  %61 = and i32 %60, 4096
  %.not61 = icmp ne i32 %61, 0
  %brmerge = or i1 %.not53, %.not61
  br i1 %brmerge, label %.thread65, label %62

62:                                               ; preds = %.thread
  %63 = tail call i32 @Curl_updatesocket(ptr noundef nonnull %0) #11
  br label %.thread65

.thread65:                                        ; preds = %46, %49, %.thread, %62, %56
  %.2 = phi i32 [ %58, %56 ], [ 0, %.thread ], [ %63, %62 ], [ 42, %46 ], [ %50, %49 ]
  br i1 %10, label %64, label %65

64:                                               ; preds = %.thread65
  tail call void @Curl_set_in_callback(ptr noundef nonnull %0, i1 noundef zeroext true) #11
  br label %65

65:                                               ; preds = %.thread65, %64, %2, %3, %6
  %.0 = phi i32 [ 43, %6 ], [ 43, %3 ], [ 43, %2 ], [ %.2, %64 ], [ %.2, %.thread65 ]
  ret i32 %.0
}